target datalayout = "e-m:e-p270:32:32-p271:32:32-p272:64:64-i64:64-i128:128-f80:128-n8:16:32:64-S128"
target triple = "x86_64-pc-linux-gnu"

; Function Attrs: nounwind uwtable
define internal i32 @drwav__seek_from_start(ptr noundef %0, i64 noundef %1, ptr noundef %2) #0 {
  %4 = alloca i32, align 4
  %5 = alloca ptr, align 8
  %6 = alloca i64, align 8
  %7 = alloca ptr, align 8
  store ptr %0, ptr %5, align 8
  store i64 %1, ptr %6, align 8
  store ptr %2, ptr %7, align 8
  %8 = load i64, ptr %6, align 8
  %9 = icmp ule i64 %8, 2147483647
  br i1 %9, label %10, label %16

10:                                               ; preds = %3
  %11 = load ptr, ptr %5, align 8
  %12 = load ptr, ptr %7, align 8
  %13 = load i64, ptr %6, align 8
  %14 = trunc i64 %13 to i32
  %15 = call i32 %11(ptr noundef %12, i32 noundef %14, i32 noundef 0)
  store i32 %15, ptr %4, align 4
  br label %43

16:                                               ; preds = %3
  %17 = load ptr, ptr %5, align 8
  %18 = load ptr, ptr %7, align 8
  %19 = call i32 %17(ptr noundef %18, i32 noundef 2147483647, i32 noundef 0)
  %20 = icmp ne i32 %19, 0
  br i1 %20, label %22, label %21

21:                                               ; preds = %16
  store i32 0, ptr %4, align 4
  br label %43

22:                                               ; preds = %16
  %23 = load i64, ptr %6, align 8
  %24 = sub i64 %23, 2147483647
  store i64 %24, ptr %6, align 8
  br label %25

25:                                               ; preds = %40, %22
  %26 = load i64, ptr %6, align 8
  %27 = icmp ule i64 %26, 2147483647
  br i1 %27, label %28, label %34

28:                                               ; preds = %25
  %29 = load ptr, ptr %5, align 8
  %30 = load ptr, ptr %7, align 8
  %31 = load i64, ptr %6, align 8
  %32 = trunc i64 %31 to i32
  %33 = call i32 %29(ptr noundef %30, i32 noundef %32, i32 noundef 1)
  store i32 %33, ptr %4, align 4
  br label %43

34:                                               ; preds = %25
  %35 = load ptr, ptr %5, align 8
  %36 = load ptr, ptr %7, align 8
  %37 = call i32 %35(ptr noundef %36, i32 noundef 2147483647, i32 noundef 1)
  %38 = icmp ne i32 %37, 0
  br i1 %38, label %40, label %39

39:                                               ; preds = %34
  store i32 0, ptr %4, align 4
  br label %43

40:                                               ; preds = %34
  %41 = load i64, ptr %6, align 8
  %42 = sub i64 %41, 2147483647
  store i64 %42, ptr %6, align 8
  br label %25

43:                                               ; preds = %39, %28, %21, %10
  %44 = load i32, ptr %4, align 4
  ret i32 %44
}