; Function Attrs: nounwind uwtable
define internal fastcc i32 @drwav__seek_from_start(ptr noundef readonly captures(none) %0, i64 noundef %1, ptr noundef %2) unnamed_addr #7 {
  %4 = icmp ult i64 %1, 2147483648
  br i1 %4, label %.loopexit.sink.split, label %5

5:                                                ; preds = %3
  %6 = tail call i32 %0(ptr noundef %2, i32 noundef 2147483647, i32 noundef 0) #72
  %.not = icmp eq i32 %6, 0
  br i1 %.not, label %.loopexit, label %.preheader

.preheader:                                       ; preds = %5, %8
  %.014.in = phi i64 [ %.014, %8 ], [ %1, %5 ]
  %.014 = add i64 %.014.in, -2147483647
  %7 = icmp ult i64 %.014, 2147483648
  br i1 %7, label %.loopexit.sink.split, label %8

8:                                                ; preds = %.preheader
  %9 = tail call i32 %0(ptr noundef %2, i32 noundef 2147483647, i32 noundef 1) #72
  %.not16 = icmp eq i32 %9, 0
  br i1 %.not16, label %.loopexit, label %.preheader

.loopexit.sink.split:                             ; preds = %.preheader, %3
  %.014.lcssa.sink = phi i64 [ %1, %3 ], [ %.014, %.preheader ]
  %.sink20 = phi i32 [ 0, %3 ], [ 1, %.preheader ]
  %10 = trunc nuw nsw i64 %.014.lcssa.sink to i32
  %11 = tail call i32 %0(ptr noundef %2, i32 noundef %10, i32 noundef %.sink20) #72
  br label %.loopexit

.loopexit:                                        ; preds = %8, %.loopexit.sink.split, %5
  %.0 = phi i32 [ 0, %5 ], [ %11, %.loopexit.sink.split ], [ 0, %8 ]
  ret i32 %.0
}